target datalayout = "e-m:e-p270:32:32-p271:32:32-p272:64:64-i64:64-i128:128-f80:128-n8:16:32:64-S128"
target triple = "x86_64-pc-linux-gnu"

; Function Attrs: nounwind uwtable
define dso_local i32 @charntorune(ptr noundef %0, ptr noundef %1, i32 noundef %2) #0 {
  %4 = alloca i32, align 4
  %5 = alloca ptr, align 8
  %6 = alloca ptr, align 8
  %7 = alloca i32, align 4
  %8 = alloca i32, align 4
  %9 = alloca i32, align 4
  %10 = alloca i32, align 4
  %11 = alloca i32, align 4
  %12 = alloca i64, align 8
  %13 = alloca i32, align 4
  store ptr %0, ptr %5, align 8, !tbaa !4
  store ptr %1, ptr %6, align 8, !tbaa !9
  store i32 %2, ptr %7, align 4, !tbaa !11
  call void @llvm.lifetime.start.p0(i64 4, ptr %8) #2
  call void @llvm.lifetime.start.p0(i64 4, ptr %9) #2
  call void @llvm.lifetime.start.p0(i64 4, ptr %10) #2
  call void @llvm.lifetime.start.p0(i64 4, ptr %11) #2
  call void @llvm.lifetime.start.p0(i64 8, ptr %12) #2
  %14 = load i32, ptr %7, align 4, !tbaa !11
  %15 = icmp sle i32 %14, 0
  br i1 %15, label %16, label %17

16:                                               ; preds = %3
  br label %145

17:                                               ; preds = %3
  %18 = load ptr, ptr %6, align 8, !tbaa !9
  %19 = load i8, ptr %18, align 1, !tbaa !13
  %20 = zext i8 %19 to i32
  store i32 %20, ptr %8, align 4, !tbaa !11
  %21 = load i32, ptr %8, align 4, !tbaa !11
  %22 = icmp slt i32 %21, 128
  br i1 %22, label %23, label %26

23:                                               ; preds = %17
  %24 = load i32, ptr %8, align 4, !tbaa !11
  %25 = load ptr, ptr %5, align 8, !tbaa !4
  store i32 %24, ptr %25, align 4, !tbaa !11
  store i32 1, ptr %4, align 4
  store i32 1, ptr %13, align 4
  br label %147

26:                                               ; preds = %17
  %27 = load i32, ptr %7, align 4, !tbaa !11
  %28 = icmp sle i32 %27, 1
  br i1 %28, label %29, label %30

29:                                               ; preds = %26
  br label %145

30:                                               ; preds = %26
  %31 = load ptr, ptr %6, align 8, !tbaa !9
  %32 = getelementptr inbounds i8, ptr %31, i64 1
  %33 = load i8, ptr %32, align 1, !tbaa !13
  %34 = zext i8 %33 to i32
  %35 = xor i32 %34, 128
  store i32 %35, ptr %9, align 4, !tbaa !11
  %36 = load i32, ptr %9, align 4, !tbaa !11
  %37 = and i32 %36, 192
  %38 = icmp ne i32 %37, 0
  br i1 %38, label %39, label %40

39:                                               ; preds = %30
  br label %143

40:                                               ; preds = %30
  %41 = load i32, ptr %8, align 4, !tbaa !11
  %42 = icmp slt i32 %41, 224
  br i1 %42, label %43, label %61

43:                                               ; preds = %40
  %44 = load i32, ptr %8, align 4, !tbaa !11
  %45 = icmp slt i32 %44, 192
  br i1 %45, label %46, label %47

46:                                               ; preds = %43
  br label %143

47:                                               ; preds = %43
  %48 = load i32, ptr %8, align 4, !tbaa !11
  %49 = shl i32 %48, 6
  %50 = load i32, ptr %9, align 4, !tbaa !11
  %51 = or i32 %49, %50
  %52 = and i32 %51, 2047
  %53 = sext i32 %52 to i64
  store i64 %53, ptr %12, align 8, !tbaa !14
  %54 = load i64, ptr %12, align 8, !tbaa !14
  %55 = icmp sle i64 %54, 127
  br i1 %55, label %56, label %57

56:                                               ; preds = %47
  br label %143

57:                                               ; preds = %47
  %58 = load i64, ptr %12, align 8, !tbaa !14
  %59 = trunc i64 %58 to i32
  %60 = load ptr, ptr %5, align 8, !tbaa !4
  store i32 %59, ptr %60, align 4, !tbaa !11
  store i32 2, ptr %4, align 4
  store i32 1, ptr %13, align 4
  br label %147

61:                                               ; preds = %40
  %62 = load i32, ptr %7, align 4, !tbaa !11
  %63 = icmp sle i32 %62, 2
  br i1 %63, label %64, label %65

64:                                               ; preds = %61
  br label %145

65:                                               ; preds = %61
  %66 = load ptr, ptr %6, align 8, !tbaa !9
  %67 = getelementptr inbounds i8, ptr %66, i64 2
  %68 = load i8, ptr %67, align 1, !tbaa !13
  %69 = zext i8 %68 to i32
  %70 = xor i32 %69, 128
  store i32 %70, ptr %10, align 4, !tbaa !11
  %71 = load i32, ptr %10, align 4, !tbaa !11
  %72 = and i32 %71, 192
  %73 = icmp ne i32 %72, 0
  br i1 %73, label %74, label %75

74:                                               ; preds = %65
  br label %143

75:                                               ; preds = %65
  %76 = load i32, ptr %8, align 4, !tbaa !11
  %77 = icmp slt i32 %76, 240
  br i1 %77, label %78, label %102

78:                                               ; preds = %75
  %79 = load i32, ptr %8, align 4, !tbaa !11
  %80 = shl i32 %79, 6
  %81 = load i32, ptr %9, align 4, !tbaa !11
  %82 = or i32 %80, %81
  %83 = shl i32 %82, 6
  %84 = load i32, ptr %10, align 4, !tbaa !11
  %85 = or i32 %83, %84
  %86 = and i32 %85, 65535
  %87 = sext i32 %86 to i64
  store i64 %87, ptr %12, align 8, !tbaa !14
  %88 = load i64, ptr %12, align 8, !tbaa !14
  %89 = icmp sle i64 %88, 2047
  br i1 %89, label %90, label %91

90:                                               ; preds = %78
  br label %143

91:                                               ; preds = %78
  %92 = load i64, ptr %12, align 8, !tbaa !14
  %93 = icmp sle i64 55296, %92
  br i1 %93, label %94, label %98

94:                                               ; preds = %91
  %95 = load i64, ptr %12, align 8, !tbaa !14
  %96 = icmp sle i64 %95, 57343
  br i1 %96, label %97, label %98

97:                                               ; preds = %94
  br label %143

98:                                               ; preds = %94, %91
  %99 = load i64, ptr %12, align 8, !tbaa !14
  %100 = trunc i64 %99 to i32
  %101 = load ptr, ptr %5, align 8, !tbaa !4
  store i32 %100, ptr %101, align 4, !tbaa !11
  store i32 3, ptr %4, align 4
  store i32 1, ptr %13, align 4
  br label %147

102:                                              ; preds = %75
  %103 = load i32, ptr %7, align 4, !tbaa !11
  %104 = icmp sle i32 %103, 3
  br i1 %104, label %105, label %106

105:                                              ; preds = %102
  br label %145

106:                                              ; preds = %102
  %107 = load ptr, ptr %6, align 8, !tbaa !9
  %108 = getelementptr inbounds i8, ptr %107, i64 3
  %109 = load i8, ptr %108, align 1, !tbaa !13
  %110 = zext i8 %109 to i32
  %111 = xor i32 %110, 128
  store i32 %111, ptr %11, align 4, !tbaa !11
  %112 = load i32, ptr %11, align 4, !tbaa !11
  %113 = and i32 %112, 192
  %114 = icmp ne i32 %113, 0
  br i1 %114, label %115, label %116

115:                                              ; preds = %106
  br label %143

116:                                              ; preds = %106
  %117 = load i32, ptr %8, align 4, !tbaa !11
  %118 = icmp slt i32 %117, 248
  br i1 %118, label %119, label %142

119:                                              ; preds = %116
  %120 = load i32, ptr %8, align 4, !tbaa !11
  %121 = shl i32 %120, 6
  %122 = load i32, ptr %9, align 4, !tbaa !11
  %123 = or i32 %121, %122
  %124 = shl i32 %123, 6
  %125 = load i32, ptr %10, align 4, !tbaa !11
  %126 = or i32 %124, %125
  %127 = shl i32 %126, 6
  %128 = load i32, ptr %11, align 4, !tbaa !11
  %129 = or i32 %127, %128
  %130 = and i32 %129, 2097151
  %131 = sext i32 %130 to i64
  store i64 %131, ptr %12, align 8, !tbaa !14
  %132 = load i64, ptr %12, align 8, !tbaa !14
  %133 = icmp sle i64 %132, 65535
  br i1 %133, label %137, label %134

134:                                              ; preds = %119
  %135 = load i64, ptr %12, align 8, !tbaa !14
  %136 = icmp sgt i64 %135, 1114111
  br i1 %136, label %137, label %138

137:                                              ; preds = %134, %119
  br label %143

138:                                              ; preds = %134
  %139 = load i64, ptr %12, align 8, !tbaa !14
  %140 = trunc i64 %139 to i32
  %141 = load ptr, ptr %5, align 8, !tbaa !4
  store i32 %140, ptr %141, align 4, !tbaa !11
  store i32 4, ptr %4, align 4
  store i32 1, ptr %13, align 4
  br label %147

142:                                              ; preds = %116
  br label %143

143:                                              ; preds = %142, %137, %115, %97, %90, %74, %56, %46, %39
  %144 = load ptr, ptr %5, align 8, !tbaa !4
  store i32 65533, ptr %144, align 4, !tbaa !11
  store i32 1, ptr %4, align 4
  store i32 1, ptr %13, align 4
  br label %147

145:                                              ; preds = %105, %64, %29, %16
  %146 = load ptr, ptr %5, align 8, !tbaa !4
  store i32 65533, ptr %146, align 4, !tbaa !11
  store i32 0, ptr %4, align 4
  store i32 1, ptr %13, align 4
  br label %147

147:                                              ; preds = %145, %143, %138, %98, %57, %23
  call void @llvm.lifetime.end.p0(i64 8, ptr %12) #2
  call void @llvm.lifetime.end.p0(i64 4, ptr %11) #2
  call void @llvm.lifetime.end.p0(i64 4, ptr %10) #2
  call void @llvm.lifetime.end.p0(i64 4, ptr %9) #2
  call void @llvm.lifetime.end.p0(i64 4, ptr %8) #2
  %148 = load i32, ptr %4, align 4
  ret i32 %148
}