; Function Attrs: mustprogress nofree norecurse nosync nounwind willreturn memory(argmem: readwrite) uwtable
define dso_local range(i32 0, 5) i32 @charntorune(ptr noundef writeonly captures(none) initializes((0, 4)) %0, ptr noundef readonly captures(none) %1, i32 noundef %2) local_unnamed_addr #0 {
  %4 = icmp slt i32 %2, 1
  br i1 %4, label %59, label %5

5:                                                ; preds = %3
  %6 = load i8, ptr %1, align 1, !tbaa !4
  %7 = zext i8 %6 to i32
  %8 = icmp sgt i8 %6, -1
  br i1 %8, label %59, label %9

9:                                                ; preds = %5
  %10 = icmp eq i32 %2, 1
  br i1 %10, label %59, label %11

11:                                               ; preds = %9
  %12 = getelementptr inbounds nuw i8, ptr %1, i64 1
  %13 = load i8, ptr %12, align 1, !tbaa !4
  %14 = xor i8 %13, -128
  %15 = zext i8 %14 to i32
  %.not = icmp ult i8 %14, 64
  br i1 %.not, label %16, label %58

16:                                               ; preds = %11
  %17 = icmp samesign ult i8 %6, -32
  br i1 %17, label %18, label %24

18:                                               ; preds = %16
  %19 = icmp samesign ult i8 %6, -64
  br i1 %19, label %58, label %20

20:                                               ; preds = %18
  %21 = shl nuw nsw i32 %7, 6
  %.masked52 = and i32 %21, 1984
  %22 = or disjoint i32 %.masked52, %15
  %23 = icmp samesign ult i32 %22, 128
  br i1 %23, label %58, label %59

24:                                               ; preds = %16
  %25 = icmp samesign ult i32 %2, 3
  br i1 %25, label %59, label %26

26:                                               ; preds = %24
  %27 = getelementptr inbounds nuw i8, ptr %1, i64 2
  %28 = load i8, ptr %27, align 1, !tbaa !4
  %29 = xor i8 %28, -128
  %30 = zext i8 %29 to i32
  %.not49 = icmp ult i8 %29, 64
  br i1 %.not49, label %31, label %58

31:                                               ; preds = %26
  %32 = icmp samesign ult i8 %6, -16
  br i1 %32, label %33, label %40

33:                                               ; preds = %31
  %34 = shl nuw nsw i32 %7, 12
  %35 = shl nuw nsw i32 %15, 6
  %.masked51 = and i32 %34, 61440
  %.masked50 = or disjoint i32 %35, %.masked51
  %36 = icmp samesign ult i32 %.masked50, 2048
  %37 = and i32 %.masked50, 63488
  %or.cond = icmp eq i32 %37, 55296
  %or.cond53 = or i1 %36, %or.cond
  br i1 %or.cond53, label %58, label %38

38:                                               ; preds = %33
  %39 = or disjoint i32 %.masked50, %30
  br label %59

40:                                               ; preds = %31
  %41 = icmp eq i32 %2, 3
  br i1 %41, label %59, label %42

42:                                               ; preds = %40
  %43 = getelementptr inbounds nuw i8, ptr %1, i64 3
  %44 = load i8, ptr %43, align 1, !tbaa !4
  %45 = xor i8 %44, -128
  %46 = icmp ult i8 %45, 64
  %47 = icmp samesign ult i8 %6, -8
  %or.cond5 = and i1 %47, %46
  br i1 %or.cond5, label %48, label %58

48:                                               ; preds = %42
  %49 = shl nuw nsw i32 %7, 12
  %50 = shl nuw nsw i32 %15, 6
  %51 = or disjoint i32 %50, %49
  %52 = or disjoint i32 %51, %30
  %53 = shl nuw nsw i32 %52, 6
  %.masked = and i32 %53, 2097088
  %54 = add nsw i32 %.masked, -1114112
  %or.cond3 = icmp ult i32 %54, -1048576
  br i1 %or.cond3, label %58, label %55

55:                                               ; preds = %48
  %56 = zext nneg i8 %45 to i32
  %57 = or disjoint i32 %.masked, %56
  br label %59

58:                                               ; preds = %48, %42, %33, %26, %20, %18, %11
  br label %59

59:                                               ; preds = %3, %9, %24, %40, %20, %5, %58, %55, %38
  %.sink = phi i32 [ 65533, %58 ], [ %57, %55 ], [ %39, %38 ], [ %7, %5 ], [ %22, %20 ], [ 65533, %40 ], [ 65533, %24 ], [ 65533, %9 ], [ 65533, %3 ]
  %.0 = phi i32 [ 1, %58 ], [ 4, %55 ], [ 3, %38 ], [ 1, %5 ], [ 2, %20 ], [ 0, %40 ], [ 0, %24 ], [ 0, %9 ], [ 0, %3 ]
  store i32 %.sink, ptr %0, align 4, !tbaa !7
  ret i32 %.0
}